(dp0
S'Use_limited_entries'
p1
I00
sS'events_used'
p2
I16826382
sS'quark_Flavour_str'
p3
S'Quark_pdgId'
p4
sS'mc_Pt_str'
p5
S'Jet_mcPt'
p6
sS'DG_rel_weight'
p7
F0.7
sS'SBF_n_bins'
p8
(dp9
S'b'
p10
(lp11
(lp12
I100
aI100
aI100
aI100
aI100
aI100
aI100
aI100
aI100
aI100
aI100
aI100
aI100
aI100
aI100
aI100
aI100
aI100
aI100
aI100
aI100
aI100
aI100
aI100
aI100
aI100
aI100
aI100
aI100
aI100
aI100
aI100
aI100
aI100
aI100
aI100
aI100
aI100
aI100
aI100
aI100
aI100
aI100
aI100
aI100
aI100
aI100
aI100
aI100
aI100
aI100
aI100
aI100
aI100
aI100
aI100
aI100
aI100
aa(lp13
I100
aI100
aI100
aI100
aI100
aI100
aI100
aI100
aI100
aI100
aI100
aI100
aI100
aI100
aI100
aI100
aI100
aI100
aI100
aI100
aI100
aI100
aI100
aI100
aI100
aI100
aI100
aI100
aI100
aI100
aI100
aI100
aI100
aI100
aI100
aI100
aI100
aI100
aI100
aI100
aI100
aI100
aI100
aI100
aI100
aI100
aI100
aI100
aI100
aI100
aI100
aI100
aI100
aI100
aI100
aI100
aI100
aI100
aasS'l'
p14
(lp15
(lp16
I100
aI100
aI100
aI100
aI100
aI100
aI100
aI100
aI100
aI100
aI100
aI100
aI100
aI100
aI100
aI100
aI100
aI100
aI100
aI100
aI100
aI100
aI100
aI100
aI100
aI100
aI100
aI100
aI100
aI100
aI100
aI100
aI100
aI100
aI100
aI100
aI100
aI100
aI100
aI100
aI100
aI100
aI100
aI100
aI100
aI100
aI100
aI100
aI100
aI100
aI100
aI100
aI100
aI100
aI100
aI100
aI100
aI100
aa(lp17
I100
aI100
aI100
aI100
aI100
aI100
aI100
aI100
aI100
aI100
aI100
aI100
aI100
aI100
aI100
aI100
aI100
aI100
aI100
aI100
aI100
aI100
aI100
aI100
aI100
aI100
aI100
aI100
aI100
aI100
aI100
aI100
aI100
aI100
aI100
aI100
aI100
aI100
aI100
aI100
aI100
aI100
aI100
aI100
aI100
aI100
aI100
aI100
aI100
aI100
aI100
aI100
aI100
aI100
aI100
aI100
aI100
aI100
aassS'selection_string'
p18
(dp19
g10
S'abs(Quark_pdgId)==5 && abs(Quark_eta)>=1.0 && abs(Quark_eta)<=2.5 && abs(Quark_pt)>=30.0 && abs(Quark_pt)<=300.0'
p20
sg14
S'abs(Quark_pdgId)!=5 && abs(Quark_eta)>=1.0 && abs(Quark_eta)<=2.5 && abs(Quark_pt)>=30.0 && abs(Quark_pt)<=300.0'
p21
ssS'Standard_SG_func'
p22
(iTFClasses
function
p23
(dp24
S'par_values'
p25
(lp26
sS'par_errors'
p27
(lp28
sS'par_limits'
p29
(lp30
sS'Is_SG'
p31
I01
sS'SG_mean'
p32
S'[1]'
p33
sS'str'
p34
S'[0]*exp(-0.5*((x-([1]))/([2]))**2)'
p35
sS'par_initials'
p36
(lp37
S'0'
p38
aS'mean'
p39
aS'rms'
p40
asS'SG_rms'
p41
S'[2]'
p42
sbsS'Draw_ABF_in_single_bins'
p43
I01
sS'reco_Pt_str'
p44
S'Jet_pt'
p45
sS'outputdir'
p46
S'ttHTobb_M125_TuneCP5_13TeV-powheg-pythia8'
p47
sS'quark_Phi_str'
p48
S'Quark_phi'
p49
sS'n_E_hist_bins'
p50
I200
sS'input_root_file_name'
p51
S'/pnfs/psi.ch/cms/trivcat/store/user/mameinha/gc/transfer/GC2997b3ce756f//ttHTobb_M125_TuneCP5_13TeV-powheg-pythia8.root'
p52
sS'input_tree_name'
p53
S'Quarks'
p54
sS'particles'
p55
(lp56
g10
ag14
asS'E_bounds'
p57
(lp58
F30.0
aF300.0
asS'mc_Eta_str'
p59
S'Jet_mcEta'
p60
sS'Standard_DG_func'
p61
(iTFClasses
function
p62
(dp63
S'DG_rel_weight'
p64
F0.7
sg25
(lp65
sS'DG_mean'
p66
(lp67
g33
aS'[3]'
p68
asg27
(lp69
sg29
(lp70
(I1
F0.0
F2000.0
tp71
a(I2
F0.0
F2000.0
tp72
a(I3
F0.0
F2000.0
tp73
a(I4
F0.0
F2000.0
tp74
asS'Is_DG'
p75
I01
sg34
S'[0]*(0.7*exp(-0.5*((x-([1]))/([2]))**2)+(1-0.7)*exp(-0.5*((x-([3]))/([2]+[4]))**2))'
p76
sg36
(lp77
g38
aS'1.1*mean'
p78
aS'1.0*rms'
p79
aS'0.7*mean'
p80
aS'0.5*rms'
p81
asS'fitrange'
p82
(F30.1
F500.0
tp83
sS'DG_rms'
p84
(lp85
g42
aS'[2]+[4]'
p86
asbsS'mc_Flavour_str'
p87
S'Jet_mcFlavour'
p88
sS'ABFunctions'
p89
(dp90
g10
(lp91
(iTFClasses
function
p92
(dp93
g27
(lp94
sg25
(lp95
sg29
g30
sg34
S'1'
p96
sg36
(lp97
sba(iTFClasses
function
p98
(dp99
g27
(lp100
sg25
(lp101
sg29
g30
sg34
S'[0]+[1]*x'
p102
sg36
(lp103
g38
ag96
asba(iTFClasses
function
p104
(dp105
g27
(lp106
sg25
(lp107
sg29
g30
sg34
S'sqrt([0]*[0] + x*[1]*[1] + x*x*[2]*[2])'
p108
sg36
(lp109
g38
ag38
ag38
asba(iTFClasses
function
p110
(dp111
g27
(lp112
sg25
(lp113
sg29
g30
sg34
g102
sg36
(lp114
g38
ag96
asba(iTFClasses
function
p115
(dp116
g27
(lp117
sg25
(lp118
sg29
g30
sg34
g108
sg36
(lp119
g38
ag38
ag38
asbasg14
(lp120
(iTFClasses
function
p121
(dp122
g27
(lp123
sg25
(lp124
sg29
g30
sg34
g96
sg36
g97
sba(iTFClasses
function
p125
(dp126
g27
(lp127
sg25
(lp128
sg29
g30
sg34
g102
sg36
(lp129
g38
ag96
asba(iTFClasses
function
p130
(dp131
g27
(lp132
sg25
(lp133
sg29
g30
sg34
g108
sg36
(lp134
g38
ag38
ag38
asba(iTFClasses
function
p135
(dp136
g27
(lp137
sg25
(lp138
sg29
g30
sg34
g102
sg36
(lp139
g38
ag96
asba(iTFClasses
function
p140
(dp141
g27
(lp142
sg25
(lp143
sg29
g30
sg34
g108
sg36
(lp144
g38
ag38
ag38
asbassS'quark_E_str'
p145
S'Quark_pt'
p146
sS'reco_Phi_str'
p147
S'Jet_phi'
p148
sS'eta_axis'
p149
(lp150
F0.0
aF1.0
aF2.5
asS'n_entries_limited'
p151
I100000
sS'quark_Pt_str'
p152
g146
sS'SBF_plot_ranges'
p153
(dp154
g10
(lp155
(lp156
(lp157
I0
aF70.8
aa(lp158
I0
aF76.2
aa(lp159
I0
aF81.6
aa(lp160
I0
aF87.0
aa(lp161
I0
aF92.4
aa(lp162
I0
aF97.80000000000001
aa(lp163
I0
aF103.2
aa(lp164
I0
aF108.6
aa(lp165
I0
aF114.0
aa(lp166
I0
aF119.4
aa(lp167
I0
aF124.80000000000001
aa(lp168
I0
aF130.2
aa(lp169
I0
aF135.60000000000002
aa(lp170
I0
aF141.0
aa(lp171
I0
aF146.4
aa(lp172
I0
aF151.8
aa(lp173
I0
aF157.2
aa(lp174
I0
aF162.60000000000002
aa(lp175
I0
aF168.0
aa(lp176
I0
aF173.4
aa(lp177
I0
aF178.8
aa(lp178
I0
aF184.2
aa(lp179
I0
aF189.60000000000002
aa(lp180
I0
aF195.0
aa(lp181
I0
aF203.10000000000002
aa(lp182
I0
aF208.5
aa(lp183
I0
aF213.9
aa(lp184
I0
aF219.3
aa(lp185
I0
aF224.70000000000002
aa(lp186
I0
aF230.10000000000002
aa(lp187
I0
aF235.5
aa(lp188
I0
aF240.9
aa(lp189
I0
aF246.3
aa(lp190
I0
aF251.70000000000002
aa(lp191
I0
aF257.1
aa(lp192
I0
aF262.5
aa(lp193
I0
aF267.9
aa(lp194
I0
aF273.3
aa(lp195
I0
aF281.4
aa(lp196
I0
aF286.8
aa(lp197
I0
aF292.20000000000005
aa(lp198
I0
aF297.6
aa(lp199
I0
aF305.70000000000005
aa(lp200
I0
aF311.1
aa(lp201
I0
aF319.20000000000005
aa(lp202
I0
aF327.3
aa(lp203
I0
aF338.1
aa(lp204
I0
aF346.20000000000005
aa(lp205
I0
aF357.0
aa(lp206
I0
aF367.8
aa(lp207
I0
aF381.3
aa(lp208
I0
aF397.5
aa(lp209
I0
aF413.70000000000005
aa(lp210
I0
aF435.3
aa(lp211
I0
aF459.6
aa(lp212
I0
aF492.0
aa(lp213
I0
aF535.2
aa(lp214
I0
aF600.0
aaa(lp215
(lp216
I0
aF68.1
aa(lp217
I0
aF73.5
aa(lp218
I0
aF78.9
aa(lp219
I0
aF84.3
aa(lp220
I0
aF89.7
aa(lp221
I0
aF95.1
aa(lp222
I0
aF100.5
aa(lp223
I0
aF103.2
aa(lp224
I0
aF108.6
aa(lp225
I0
aF114.0
aa(lp226
I0
aF119.4
aa(lp227
I0
aF124.80000000000001
aa(lp228
I0
aF130.2
aa(lp229
I0
aF135.60000000000002
aa(lp230
I0
aF138.3
aa(lp231
I0
aF143.7
aa(lp232
I0
aF149.10000000000002
aa(lp233
I0
aF154.5
aa(lp234
I0
aF159.9
aa(lp235
I0
aF165.3
aa(lp236
I0
aF170.7
aa(lp237
I0
aF173.4
aa(lp238
I0
aF178.8
aa(lp239
I0
aF184.2
aa(lp240
I0
aF189.60000000000002
aa(lp241
I0
aF195.0
aa(lp242
I0
aF200.4
aa(lp243
I0
aF205.8
aa(lp244
I0
aF208.5
aa(lp245
I0
aF213.9
aa(lp246
I0
aF219.3
aa(lp247
I0
aF224.70000000000002
aa(lp248
I0
aF230.10000000000002
aa(lp249
I0
aF235.5
aa(lp250
I0
aF240.9
aa(lp251
I0
aF243.60000000000002
aa(lp252
I0
aF249.0
aa(lp253
I0
aF254.4
aa(lp254
I0
aF259.8
aa(lp255
I0
aF265.20000000000005
aa(lp256
I0
aF270.6
aa(lp257
I0
aF276.0
aa(lp258
I0
aF284.1
aa(lp259
I0
aF289.5
aa(lp260
I0
aF294.9
aa(lp261
I0
aF303.0
aa(lp262
I0
aF311.1
aa(lp263
I0
aF321.90000000000003
aa(lp264
I0
aF330.0
aa(lp265
I0
aF340.8
aa(lp266
I0
aF354.3
aa(lp267
I0
aF367.8
aa(lp268
I0
aF384.0
aa(lp269
I0
aF405.6
aa(lp270
I0
aF429.90000000000003
aa(lp271
I0
aF462.3
aa(lp272
I0
aF510.90000000000003
aa(lp273
I0
aF600.0
aaasg14
(lp274
(lp275
(lp276
I0
aF68.1
aa(lp277
I0
aF73.5
aa(lp278
I0
aF78.9
aa(lp279
I0
aF81.6
aa(lp280
I0
aF87.0
aa(lp281
I0
aF92.4
aa(lp282
I0
aF95.1
aa(lp283
I0
aF100.5
aa(lp284
I0
aF105.9
aa(lp285
I0
aF108.6
aa(lp286
I0
aF114.0
aa(lp287
I0
aF119.4
aa(lp288
I0
aF122.1
aa(lp289
I0
aF127.5
aa(lp290
I0
aF132.9
aa(lp291
I0
aF135.60000000000002
aa(lp292
I0
aF141.0
aa(lp293
I0
aF146.4
aa(lp294
I0
aF151.8
aa(lp295
I0
aF154.5
aa(lp296
I0
aF159.9
aa(lp297
I0
aF165.3
aa(lp298
I0
aF168.0
aa(lp299
I0
aF173.4
aa(lp300
I0
aF178.8
aa(lp301
I0
aF181.5
aa(lp302
I0
aF186.9
aa(lp303
I0
aF192.3
aa(lp304
I0
aF195.0
aa(lp305
I0
aF200.4
aa(lp306
I0
aF205.8
aa(lp307
I0
aF208.5
aa(lp308
I0
aF213.9
aa(lp309
I0
aF219.3
aa(lp310
I0
aF222.0
aa(lp311
I0
aF227.4
aa(lp312
I0
aF232.8
aa(lp313
I0
aF238.20000000000002
aa(lp314
I0
aF240.9
aa(lp315
I0
aF246.3
aa(lp316
I0
aF254.4
aa(lp317
I0
aF259.8
aa(lp318
I0
aF265.20000000000005
aa(lp319
I0
aF270.6
aa(lp320
I0
aF278.70000000000005
aa(lp321
I0
aF286.8
aa(lp322
I0
aF294.9
aa(lp323
I0
aF303.0
aa(lp324
I0
aF313.8
aa(lp325
I0
aF324.6
aa(lp326
I0
aF338.1
aa(lp327
I0
aF351.6
aa(lp328
I0
aF367.8
aa(lp329
I0
aF389.40000000000003
aa(lp330
I0
aF413.70000000000005
aa(lp331
I0
aF448.8
aa(lp332
I0
aF500.1
aa(lp333
I0
aF600.0
aaa(lp334
(lp335
I0
aF68.1
aa(lp336
I0
aF73.5
aa(lp337
I0
aF76.2
aa(lp338
I0
aF81.6
aa(lp339
I0
aF84.3
aa(lp340
I0
aF89.7
aa(lp341
I0
aF92.4
aa(lp342
I0
aF97.80000000000001
aa(lp343
I0
aF100.5
aa(lp344
I0
aF105.9
aa(lp345
I0
aF108.6
aa(lp346
I0
aF114.0
aa(lp347
I0
aF116.7
aa(lp348
I0
aF122.1
aa(lp349
I0
aF124.80000000000001
aa(lp350
I0
aF130.2
aa(lp351
I0
aF132.9
aa(lp352
I0
aF138.3
aa(lp353
I0
aF141.0
aa(lp354
I0
aF146.4
aa(lp355
I0
aF149.10000000000002
aa(lp356
I0
aF154.5
aa(lp357
I0
aF157.2
aa(lp358
I0
aF162.60000000000002
aa(lp359
I0
aF165.3
aa(lp360
I0
aF170.7
aa(lp361
I0
aF173.4
aa(lp362
I0
aF178.8
aa(lp363
I0
aF181.5
aa(lp364
I0
aF186.9
aa(lp365
I0
aF189.60000000000002
aa(lp366
I0
aF195.0
aa(lp367
I0
aF197.70000000000002
aa(lp368
I0
aF203.10000000000002
aa(lp369
I0
aF205.8
aa(lp370
I0
aF211.20000000000002
aa(lp371
I0
aF216.60000000000002
aa(lp372
I0
aF219.3
aa(lp373
I0
aF224.70000000000002
aa(lp374
I0
aF230.10000000000002
aa(lp375
I0
aF232.8
aa(lp376
I0
aF240.9
aa(lp377
I0
aF246.3
aa(lp378
I0
aF251.70000000000002
aa(lp379
I0
aF257.1
aa(lp380
I0
aF265.20000000000005
aa(lp381
I0
aF273.3
aa(lp382
I0
aF281.4
aa(lp383
I0
aF292.20000000000005
aa(lp384
I0
aF300.3
aa(lp385
I0
aF313.8
aa(lp386
I0
aF327.3
aa(lp387
I0
aF340.8
aa(lp388
I0
aF362.40000000000003
aa(lp389
I0
aF386.70000000000005
aa(lp390
I0
aF419.1
aa(lp391
I0
aF473.1
aa(lp392
I0
aF600.0
aaassS'date'
p393
S'2020-01-16 17:42:03'
p394
sS'quark_Eta_str'
p395
S'Quark_eta'
p396
sS'n_total_events'
p397
L38836461L
sS'info'
p398
S'*** Information on this config.dat ***\nThis config file contains the input parameters (and some output parameters) used in the creation of TFMat.dat, the matrix of transfer functions. \n\nSome html-overviews are produced in the output directory.\n\n This config.dat was created on: 2020-01-16 17:42:03'
p399
sS'E_or_Pt_str'
p400
S'Pt'
p401
sS'n_E_bins'
p402
I58
sS'Use_mc_values'
p403
I00
sS'E_value_mean_or_center'
p404
S'm'
p405
sS'reco_E_str'
p406
g45
sS'reco_Eta_str'
p407
S'Jet_eta'
p408
sS'mc_Phi_str'
p409
S'Jet_mcPhi'
p410
sS'SBF_hists_pickle_filename'
p411
S'ttHTobb_M125_TuneCP5_13TeV-powheg-pythia8/SBF_hists_pickle.dat'
p412
sS'bin_functions'
p413
(dp414
g10
(lp415
(iTFClasses
function
p416
(dp417
g27
(lp418
sg25
(lp419
sg66
(lp420
g33
ag68
asg64
F0.7
sg29
(lp421
g71
ag72
ag73
ag74
asg75
I01
sg34
g76
sg36
(lp422
g38
ag78
ag79
ag80
ag81
asg82
g83
sg84
(lp423
g42
ag86
asba(iTFClasses
function
p424
(dp425
g27
(lp426
sg25
(lp427
sg66
(lp428
g33
ag68
asg64
F0.7
sg29
(lp429
g71
ag72
ag73
ag74
asg75
I01
sg34
g76
sg36
(lp430
g38
ag78
ag79
ag80
ag81
asg82
g83
sg84
(lp431
g42
ag86
asbasg14
(lp432
(iTFClasses
function
p433
(dp434
g27
(lp435
sg25
(lp436
sg66
(lp437
g33
ag68
asg64
F0.7
sg29
(lp438
g71
ag72
ag73
ag74
asg75
I01
sg34
g76
sg36
(lp439
g38
ag78
ag79
ag80
ag81
asg82
g83
sg84
(lp440
g42
ag86
asba(iTFClasses
function
p441
(dp442
g27
(lp443
sg25
(lp444
sg66
(lp445
g33
ag68
asg64
F0.7
sg29
(lp446
g71
ag72
ag73
ag74
asg75
I01
sg34
g76
sg36
(lp447
g38
ag78
ag79
ag80
ag81
asg82
g83
sg84
(lp448
g42
ag86
asbassS'SBF_fitted_hists_pickle_filename'
p449
S'ttHTobb_M125_TuneCP5_13TeV-powheg-pythia8/SBF_fitted_hists_pickle.dat'
p450
sS'mc_E_str'
p451
S'Jet_mcE'
p452
sS'Use_Pt'
p453
I01
s.