(dp0
S'b'
p1
(lp2
(iTFClasses
TF
p3
(dp4
S'SingleBinFunc'
p5
(iTFClasses
function
p6
(dp7
S'DG_rel_weight'
p8
F0.7
sS'par_values'
p9
(lp10
F561.3215698957398
aF32.440391259001444
aF8.301794005308171
aF40.74097290017631
aF7.166760675985873
asS'DG_mean'
p11
(lp12
S'[1]'
p13
aS'[3]'
p14
asS'par_errors'
p15
(lp16
F28.676838359043458
aF0.5984044102904669
aF0.6024382184623982
aF3.273343080760938
aF2.9999746818496487
asS'par_limits'
p17
(lp18
(I1
F0.0
F2000.0
tp19
a(I2
F0.0
F2000.0
tp20
a(I3
F0.0
F2000.0
tp21
a(I4
F0.0
F2000.0
tp22
asS'Is_DG'
p23
I01
sS'str'
p24
S'[0]*(0.7*exp(-0.5*((x-([1]))/([2]))**2)+(1-0.7)*exp(-0.5*((x-([3]))/([2]+[4]))**2))'
p25
sS'par_initials'
p26
(lp27
S'0'
p28
aS'1.1*mean'
p29
aS'1.0*rms'
p30
aS'0.7*mean'
p31
aS'0.5*rms'
p32
asS'fitrange'
p33
(F30.1
F500.0
tp34
sS'DG_rms'
p35
(lp36
S'[2]'
p37
aS'[2]+[4]'
p38
asbsS'i_eta'
p39
I0
sS'particle'
p40
g1
sS'AcrossBinFuncs'
p41
(lp42
(iTFClasses
function
p43
(dp44
g15
(lp45
sg9
(lp46
sg17
(lp47
sg24
S'1'
p48
sg26
(lp49
sba(iTFClasses
function
p50
(dp51
g15
(lp52
F0.04801489901969656
aF0.0004516219912850895
asg9
(lp53
F1.7066515185047162
aF0.9856847030329161
asg17
(lp54
sg24
S'[0]+[1]*x'
p55
sg26
(lp56
S'0'
p57
ag48
asba(iTFClasses
function
p58
(dp59
g15
(lp60
F0.5106900444516911
aF0.02604553127552509
aF0.005115943081089559
asg9
(lp61
F3.4449427556852026
aF1.270258043813056
aF0.026560738197556544
asg17
(lp62
sg24
S'sqrt([0]*[0] + x*[1]*[1] + x*x*[2]*[2])'
p63
sg26
(lp64
g57
ag57
ag57
asba(iTFClasses
function
p65
(dp66
g15
(lp67
F0.10635626811589427
aF0.0008886440333844968
asg9
(lp68
F11.96663606256491
aF0.8790295798416123
asg17
(lp69
sg24
g55
sg26
(lp70
g57
ag48
asba(iTFClasses
function
p71
(dp72
g15
(lp73
F0.1645411909366223
aF0.09707549269640842
aF0.0005780139867673737
asg9
(lp74
F7.242482467651142
aF9.44239423278029e-07
aF0.14265440797764314
asg17
(lp75
sg24
g63
sg26
(lp76
g57
ag57
ag57
asbasba(iTFClasses
TF
p77
(dp78
g5
(iTFClasses
function
p79
(dp80
g8
F0.7
sg9
(lp81
F329.33624076486427
aF33.30497663650567
aF10.802331136669729
aF5.673597081035098e-05
aF31.32618871856152
asg11
(lp82
g13
ag14
asg15
(lp83
F7.688512428993703
aF0.7515002676805054
aF0.8159985199083231
aF208.93924142496155
aF5.328992621954411
asg17
(lp84
g19
ag20
ag21
ag22
asg23
I01
sg24
g25
sg26
(lp85
g28
ag29
ag30
ag31
ag32
asg33
g34
sg35
(lp86
g37
ag38
asbsg39
I1
sg40
g1
sg41
(lp87
(iTFClasses
function
p88
(dp89
g15
(lp90
sg9
(lp91
sg17
(lp92
sg24
g48
sg26
(lp93
sba(iTFClasses
function
p94
(dp95
g15
(lp96
F0.12728063530568223
aF0.0010559563381715219
asg9
(lp97
F2.1824615119237745
aF0.9692113550430895
asg17
(lp98
sg24
g55
sg26
(lp99
g57
ag48
asba(iTFClasses
function
p100
(dp101
g15
(lp102
F1.9596858138726831
aF0.010508996834467467
aF0.005488915188090854
asg9
(lp103
F-9.279017324375255e-06
aF1.5393034775957692
aF0.021746022525518237
asg17
(lp104
sg24
g63
sg26
(lp105
g57
ag57
ag57
asba(iTFClasses
function
p106
(dp107
g15
(lp108
F0.2508411081092207
aF0.0020264988529842057
asg9
(lp109
F13.097127282691401
aF0.8623289944184704
asg17
(lp110
sg24
g55
sg26
(lp111
g57
ag48
asba(iTFClasses
function
p112
(dp113
g15
(lp114
F0.28222274332652014
aF0.19204633430587764
aF0.001001574794214285
asg9
(lp115
F7.328381865061375
aF7.840058458217257e-07
aF0.13434282367910697
asg17
(lp116
sg24
g63
sg26
(lp117
g57
ag57
ag57
asbasbasS'l'
p118
(lp119
(iTFClasses
TF
p120
(dp121
g5
(iTFClasses
function
p122
(dp123
g8
F0.7
sg9
(lp124
F1771.0276457623754
aF36.32130505738218
aF8.409059504681625
aF40.60618285973072
aF9.708613146331203
asg11
(lp125
g13
ag14
asg15
(lp126
F23.506400094560057
aF0.2776914589865953
aF0.16392736017417686
aF1.8669695857816428
aF1.589214694751651
asg17
(lp127
g19
ag20
ag21
ag22
asg23
I01
sg24
g25
sg26
(lp128
g28
ag29
ag30
ag31
ag32
asg33
g34
sg35
(lp129
g37
ag38
asbsg39
I0
sg40
g118
sg41
(lp130
(iTFClasses
function
p131
(dp132
g15
(lp133
sg9
(lp134
sg17
(lp135
sg24
g48
sg26
(lp136
sba(iTFClasses
function
p137
(dp138
g15
(lp139
F0.05449893782340569
aF0.0005287334796353026
asg9
(lp140
F4.552549171356559
aF1.0048426221472864
asg17
(lp141
sg24
g55
sg26
(lp142
g57
ag48
asba(iTFClasses
function
p143
(dp144
g15
(lp145
F0.2814073874133057
aF0.020234507794231672
aF0.0032457747956397163
asg9
(lp146
F4.070928196379291
aF1.1619072534670913
aF0.031986195579705286
asg17
(lp147
sg24
g63
sg26
(lp148
g57
ag57
ag57
asba(iTFClasses
function
p149
(dp150
g15
(lp151
F0.10756165543282328
aF0.000976358114938964
asg9
(lp152
F12.993423027545678
aF0.9141216479943183
asg17
(lp153
sg24
g55
sg26
(lp154
g57
ag48
asba(iTFClasses
function
p155
(dp156
g15
(lp157
F0.08645460992701581
aF0.15351533771921635
aF0.0005769644940513255
asg9
(lp158
F9.179320742920098
aF-6.358742529512976e-08
aF0.11957565796819206
asg17
(lp159
sg24
g63
sg26
(lp160
g57
ag57
ag57
asbasba(iTFClasses
TF
p161
(dp162
g5
(iTFClasses
function
p163
(dp164
g8
F0.7
sg9
(lp165
F1046.7527074438397
aF36.32528059470397
aF9.263661497664222
aF46.22441964326618
aF5.700935433355148
asg11
(lp166
g13
ag14
asg15
(lp167
F42.79444301607481
aF0.48814455284873404
aF0.3219079977841979
aF1.8791662074312256
aF1.713154013634588
asg17
(lp168
g19
ag20
ag21
ag22
asg23
I01
sg24
g25
sg26
(lp169
g28
ag29
ag30
ag31
ag32
asg33
g34
sg35
(lp170
g37
ag38
asbsg39
I1
sg40
g118
sg41
(lp171
(iTFClasses
function
p172
(dp173
g15
(lp174
sg9
(lp175
sg17
(lp176
sg24
g48
sg26
(lp177
sba(iTFClasses
function
p178
(dp179
g15
(lp180
F0.0919482084517402
aF0.0008839390456080572
asg9
(lp181
F5.85983587769663
aF0.9986282682842909
asg17
(lp182
sg24
g55
sg26
(lp183
g57
ag48
asba(iTFClasses
function
p184
(dp185
g15
(lp186
F0.4630260016199378
aF0.033102602754246174
aF0.006880653975661624
asg9
(lp187
F4.77994923369645
aF1.3712357425069133
aF0.029400938978507846
asg17
(lp188
sg24
g63
sg26
(lp189
g57
ag57
ag57
asba(iTFClasses
function
p190
(dp191
g15
(lp192
F0.18595227169598186
aF0.001647767087845933
asg9
(lp193
F13.318717934292394
aF0.9048172289239593
asg17
(lp194
sg24
g55
sg26
(lp195
g57
ag48
asba(iTFClasses
function
p196
(dp197
g15
(lp198
F0.16162030831218444
aF0.17028069211829822
aF0.0009226595459621841
asg9
(lp199
F8.696992093282512
aF3.597846355012748e-08
aF0.12529387294501057
asg17
(lp200
sg24
g63
sg26
(lp201
g57
ag57
ag57
asbasbas.