(dp0
S'b'
p1
(lp2
(iTFClasses
TF
p3
(dp4
S'SingleBinFunc'
p5
(iTFClasses
function
p6
(dp7
S'DG_rel_weight'
p8
F0.7
sS'par_values'
p9
(lp10
F46.27834205213934
aF54.8715682716705
aF9.440075532797243
aF68.51040908345607
aF9.567090308734372
asS'DG_mean'
p11
(lp12
S'[1]'
p13
aS'[3]'
p14
asS'par_errors'
p15
(lp16
F2.079596642539422
aF0.7136225989342613
aF0.484041018186943
aF1.5111230257301997
aF1.5354293319389534
asS'par_limits'
p17
(lp18
(I1
F0.0
F2000.0
tp19
a(I2
F0.0
F2000.0
tp20
a(I3
F0.0
F2000.0
tp21
a(I4
F0.0
F2000.0
tp22
asS'Is_DG'
p23
I01
sS'str'
p24
S'[0]*(0.7*exp(-0.5*((x-([1]))/([2]))**2)+(1-0.7)*exp(-0.5*((x-([3]))/([2]+[4]))**2))'
p25
sS'par_initials'
p26
(lp27
S'0'
p28
aS'1.1*mean'
p29
aS'1.0*rms'
p30
aS'0.7*mean'
p31
aS'0.5*rms'
p32
asS'fitrange'
p33
(F30.1
F500.0
tp34
sS'DG_rms'
p35
(lp36
S'[2]'
p37
aS'[2]+[4]'
p38
asbsS'i_eta'
p39
I0
sS'particle'
p40
g1
sS'AcrossBinFuncs'
p41
(lp42
(iTFClasses
function
p43
(dp44
g15
(lp45
sg9
(lp46
sg17
(lp47
sg24
S'1'
p48
sg26
(lp49
sba(iTFClasses
function
p50
(dp51
g15
(lp52
F0.4012021466419929
aF0.0021667130608363488
asg9
(lp53
F-6.42634577414655
aF1.023948861677334
asg17
(lp54
sg24
S'[0]+[1]*x'
p55
sg26
(lp56
S'0'
p57
ag48
asba(iTFClasses
function
p58
(dp59
g15
(lp60
F1.1134057955310004
aF0.02715442379452714
aF0.014352069925666016
asg9
(lp61
F5.464562742792542
aF1.4000809645959298
aF-2.5788945402017274e-08
asg17
(lp62
sg24
S'sqrt([0]*[0] + x*[1]*[1] + x*x*[2]*[2])'
p63
sg26
(lp64
g57
ag57
ag57
asba(iTFClasses
function
p65
(dp66
g15
(lp67
F0.7824809369587012
aF0.004231132459642384
asg9
(lp68
F0.971458136368302
aF1.0589129567856443
asg17
(lp69
sg24
g55
sg26
(lp70
g57
ag48
asba(iTFClasses
function
p71
(dp72
g15
(lp73
F1.5583280384689049
aF0.07230144158442134
aF0.006277101634039969
asg9
(lp74
F5.9237707377719485e-06
aF2.0565588623693833
aF0.11744433654046413
asg17
(lp75
sg24
g63
sg26
(lp76
g57
ag57
ag57
asbasba(iTFClasses
TF
p77
(dp78
g5
(iTFClasses
function
p79
(dp80
g8
F0.7
sg9
(lp81
F17.494945577130043
aF58.99091284253943
aF9.796376565905929
aF66.7083075940832
aF11.044021019016803
asg11
(lp82
g13
ag14
asg15
(lp83
F1.2296905839449241
aF1.2830122434787086
aF0.9232989192013985
aF2.9758970003659364
aF3.0113066218945823
asg17
(lp84
g19
ag20
ag21
ag22
asg23
I01
sg24
g25
sg26
(lp85
g28
ag29
ag30
ag31
ag32
asg33
g34
sg35
(lp86
g37
ag38
asbsg39
I1
sg40
g1
sg41
(lp87
(iTFClasses
function
p88
(dp89
g15
(lp90
sg9
(lp91
sg17
(lp92
sg24
g48
sg26
(lp93
sba(iTFClasses
function
p94
(dp95
g15
(lp96
F0.7293941650632723
aF0.00399570910860453
asg9
(lp97
F-7.5779075770380775
aF1.023796850628593
asg17
(lp98
sg24
g55
sg26
(lp99
g57
ag48
asba(iTFClasses
function
p100
(dp101
g15
(lp102
F11.872559140341645
aF0.01614762146238519
aF0.02135525270468719
asg9
(lp103
F-8.183637731777027e-08
aF1.5970667774060203
aF0.0
asg17
(lp104
sg24
g63
sg26
(lp105
g57
ag57
ag57
asba(iTFClasses
function
p106
(dp107
g15
(lp108
F1.5252970289933385
aF0.008049837043092476
asg9
(lp109
F3.123459862843299
aF1.024459929455636
asg17
(lp110
sg24
g55
sg26
(lp111
g57
ag48
asba(iTFClasses
function
p112
(dp113
g15
(lp114
F3.554481121411799
aF0.12916687857891254
aF0.02294986473416335
asg9
(lp115
F6.605600057339164e-09
aF2.383804572894764
aF0.06499815122878189
asg17
(lp116
sg24
g63
sg26
(lp117
g57
ag57
ag57
asbasbas.