(dp0
S'b'
p1
(lp2
(iTFClasses
TF
p3
(dp4
S'SingleBinFunc'
p5
(iTFClasses
function
p6
(dp7
S'DG_rel_weight'
p8
F0.7
sS'par_values'
p9
(lp10
F46.92060568956616
aF54.715694535675155
aF9.259233266191714
aF68.41964890858688
aF8.059038031556497
asS'DG_mean'
p11
(lp12
S'[1]'
p13
aS'[3]'
p14
asS'par_errors'
p15
(lp16
F2.283280114058548
aF0.7554533688144396
aF0.5187718383342643
aF1.7308983181072435
aF1.6160269694882046
asS'par_limits'
p17
(lp18
(I1
F0.0
F2000.0
tp19
a(I2
F0.0
F2000.0
tp20
a(I3
F0.0
F2000.0
tp21
a(I4
F0.0
F2000.0
tp22
asS'Is_DG'
p23
I01
sS'str'
p24
S'[0]*(0.7*exp(-0.5*((x-([1]))/([2]))**2)+(1-0.7)*exp(-0.5*((x-([3]))/([2]+[4]))**2))'
p25
sS'par_initials'
p26
(lp27
S'0'
p28
aS'1.1*mean'
p29
aS'1.0*rms'
p30
aS'0.7*mean'
p31
aS'0.5*rms'
p32
asS'fitrange'
p33
(F30.1
F500.0
tp34
sS'DG_rms'
p35
(lp36
S'[2]'
p37
aS'[2]+[4]'
p38
asbsS'i_eta'
p39
I0
sS'particle'
p40
g1
sS'AcrossBinFuncs'
p41
(lp42
(iTFClasses
function
p43
(dp44
g15
(lp45
sg9
(lp46
sg17
(lp47
sg24
S'1'
p48
sg26
(lp49
sba(iTFClasses
function
p50
(dp51
g15
(lp52
F0.2643702106856969
aF0.0014639512951916084
asg9
(lp53
F-6.625514077429647
aF1.024457119209746
asg17
(lp54
sg24
S'[0]+[1]*x'
p55
sg26
(lp56
S'0'
p57
ag48
asba(iTFClasses
function
p58
(dp59
g15
(lp60
F1.213178513573278
aF0.026691223491255318
aF0.017554570693997247
asg9
(lp61
F4.972402480510772
aF1.4105194347747039
aF-2.394367808441218e-07
asg17
(lp62
sg24
S'sqrt([0]*[0] + x*[1]*[1] + x*x*[2]*[2])'
p63
sg26
(lp64
g57
ag57
ag57
asba(iTFClasses
function
p65
(dp66
g15
(lp67
F0.7928376361724032
aF0.004277081710006921
asg9
(lp68
F2.1227460976828803
aF1.0553256613173578
asg17
(lp69
sg24
g55
sg26
(lp70
g57
ag48
asba(iTFClasses
function
p71
(dp72
g15
(lp73
F1.5742207811113373
aF0.07400200491705475
aF0.0060867325868667515
asg9
(lp74
F7.086956398994404e-06
aF2.0083682525268505
aF0.12153979974692922
asg17
(lp75
sg24
g63
sg26
(lp76
g57
ag57
ag57
asbasba(iTFClasses
TF
p77
(dp78
g5
(iTFClasses
function
p79
(dp80
g8
F0.7
sg9
(lp81
F19.68178339589098
aF56.16666421247973
aF8.752926255249038
aF71.44210247925986
aF10.595699631973044
asg11
(lp82
g13
ag14
asg15
(lp83
F1.4525431156905073
aF1.0362457274515329
aF0.7900446595514588
aF2.421223918994407
aF2.5533419807869393
asg17
(lp84
g19
ag20
ag21
ag22
asg23
I01
sg24
g25
sg26
(lp85
g28
ag29
ag30
ag31
ag32
asg33
g34
sg35
(lp86
g37
ag38
asbsg39
I1
sg40
g1
sg41
(lp87
(iTFClasses
function
p88
(dp89
g15
(lp90
sg9
(lp91
sg17
(lp92
sg24
g48
sg26
(lp93
sba(iTFClasses
function
p94
(dp95
g15
(lp96
F0.7710329014337949
aF0.004169721309103582
asg9
(lp97
F-8.209935743570338
aF1.0263888710957747
asg17
(lp98
sg24
g55
sg26
(lp99
g57
ag48
asba(iTFClasses
function
p100
(dp101
g15
(lp102
F2.3212059490890735
aF0.04654466108108739
aF0.02383592963736818
asg9
(lp103
F4.952079007511676
aF1.5894960983438458
aF0.0
asg17
(lp104
sg24
g63
sg26
(lp105
g57
ag57
ag57
asba(iTFClasses
function
p106
(dp107
g15
(lp108
F1.5657880245110083
aF0.008258079031391006
asg9
(lp109
F6.399266242949784
aF1.0085975407198209
asg17
(lp110
sg24
g55
sg26
(lp111
g57
ag48
asba(iTFClasses
function
p112
(dp113
g15
(lp114
F3.4642756582087135
aF0.13255230118630568
aF0.030773015617117948
asg9
(lp115
F-7.574019964843582e-07
aF2.4342405912977334
aF0.05086575973142034
asg17
(lp116
sg24
g63
sg26
(lp117
g57
ag57
ag57
asbasbas.