(dp0
S'b'
p1
(lp2
(iTFClasses
TF
p3
(dp4
S'SingleBinFunc'
p5
(iTFClasses
function
p6
(dp7
S'DG_rel_weight'
p8
F0.7
sS'par_values'
p9
(lp10
F1289.8518975529778
aF33.21555593329062
aF8.606233928185937
aF4.5266250636150085
aF28.17465588507273
asS'DG_mean'
p11
(lp12
S'[1]'
p13
aS'[3]'
p14
asS'par_errors'
p15
(lp16
F24.228619356606107
aF0.276019549944607
aF0.2477700979824915
aF6.227814440658285
aF3.8929552694395024
asS'par_limits'
p17
(lp18
(I1
F0.0
F2000.0
tp19
a(I2
F0.0
F2000.0
tp20
a(I3
F0.0
F2000.0
tp21
a(I4
F0.0
F2000.0
tp22
asS'Is_DG'
p23
I01
sS'str'
p24
S'[0]*(0.7*exp(-0.5*((x-([1]))/([2]))**2)+(1-0.7)*exp(-0.5*((x-([3]))/([2]+[4]))**2))'
p25
sS'par_initials'
p26
(lp27
S'0'
p28
aS'1.1*mean'
p29
aS'1.0*rms'
p30
aS'0.7*mean'
p31
aS'0.5*rms'
p32
asS'fitrange'
p33
(F30.1
F500.0
tp34
sS'DG_rms'
p35
(lp36
S'[2]'
p37
aS'[2]+[4]'
p38
asbsS'i_eta'
p39
I0
sS'particle'
p40
g1
sS'AcrossBinFuncs'
p41
(lp42
(iTFClasses
function
p43
(dp44
g15
(lp45
sg9
(lp46
sg17
(lp47
sg24
S'1'
p48
sg26
(lp49
sba(iTFClasses
function
p50
(dp51
g15
(lp52
F0.03538148653014007
aF0.0003182368494738128
asg9
(lp53
F0.9484440247266439
aF0.9892243365824633
asg17
(lp54
sg24
S'[0]+[1]*x'
p55
sg26
(lp56
S'0'
p57
ag48
asba(iTFClasses
function
p58
(dp59
g15
(lp60
F0.13596423725812518
aF0.004217658364668724
aF0.009016698649451916
asg9
(lp61
F3.5880370590286432
aF1.172956568321292
aF-1.1535615195311247e-09
asg17
(lp62
sg24
S'sqrt([0]*[0] + x*[1]*[1] + x*x*[2]*[2])'
p63
sg26
(lp64
g57
ag57
ag57
asba(iTFClasses
function
p65
(dp66
g15
(lp67
F0.09501267326773767
aF0.0007660449461855363
asg9
(lp68
F9.979675036656147
aF0.8451680875734406
asg17
(lp69
sg24
g55
sg26
(lp70
g57
ag48
asba(iTFClasses
function
p71
(dp72
g15
(lp73
F0.13781324456766636
aF0.05316453076537452
aF0.0003665359999215744
asg9
(lp74
F4.415402383242591
aF6.597997863788722e-07
aF0.12914254629293118
asg17
(lp75
sg24
g63
sg26
(lp76
g57
ag57
ag57
asbasba(iTFClasses
TF
p77
(dp78
g5
(iTFClasses
function
p79
(dp80
g8
F0.7
sg9
(lp81
F717.739584684515
aF33.05645680664448
aF7.993274052775501
aF38.6948240140722
aF6.083777328302231
asg11
(lp82
g13
ag14
asg15
(lp83
F37.294100304544486
aF0.7142094796026583
aF0.5194058748647641
aF4.31420602426935
aF3.2080043474458364
asg17
(lp84
g19
ag20
ag21
ag22
asg23
I01
sg24
g25
sg26
(lp85
g28
ag29
ag30
ag31
ag32
asg33
g34
sg35
(lp86
g37
ag38
asbsg39
I1
sg40
g1
sg41
(lp87
(iTFClasses
function
p88
(dp89
g15
(lp90
sg9
(lp91
sg17
(lp92
sg24
g48
sg26
(lp93
sba(iTFClasses
function
p94
(dp95
g15
(lp96
F0.08270684920592204
aF0.000694873296144358
asg9
(lp97
F1.2576030787510781
aF0.9761303649189358
asg17
(lp98
sg24
g55
sg26
(lp99
g57
ag48
asba(iTFClasses
function
p100
(dp101
g15
(lp102
F0.2842781307989948
aF0.006726743354834039
aF0.0101544645952964
asg9
(lp103
F3.100941714863715
aF1.3651473138755483
aF2.25900463351939e-08
asg17
(lp104
sg24
g63
sg26
(lp105
g57
ag57
ag57
asba(iTFClasses
function
p106
(dp107
g15
(lp108
F0.16145449887563323
aF0.0012881013283826271
asg9
(lp109
F10.318492176956749
aF0.8367522606409387
asg17
(lp110
sg24
g55
sg26
(lp111
g57
ag48
asba(iTFClasses
function
p112
(dp113
g15
(lp114
F0.2821089471503487
aF0.09642490932466871
aF0.0006108743701060786
asg9
(lp115
F3.488430719283704
aF-5.101953277202847e-10
aF0.12298323740200556
asg17
(lp116
sg24
g63
sg26
(lp117
g57
ag57
ag57
asbasbasS'l'
p118
(lp119
(iTFClasses
TF
p120
(dp121
g5
(iTFClasses
function
p122
(dp123
g8
F0.7
sg9
(lp124
F1948.253936279561
aF35.73133793402705
aF7.745100127655058
aF40.76943768148655
aF6.556920813943989
asg11
(lp125
g13
ag14
asg15
(lp126
F30.915633273111272
aF0.25089416492896177
aF0.16055526233660355
aF1.2728240078346822
aF0.8976238875224585
asg17
(lp127
g19
ag20
ag21
ag22
asg23
I01
sg24
g25
sg26
(lp128
g28
ag29
ag30
ag31
ag32
asg33
g34
sg35
(lp129
g37
ag38
asbsg39
I0
sg40
g118
sg41
(lp130
(iTFClasses
function
p131
(dp132
g15
(lp133
sg9
(lp134
sg17
(lp135
sg24
g48
sg26
(lp136
sba(iTFClasses
function
p137
(dp138
g15
(lp139
F0.0469408850775677
aF0.00045550465464411764
asg9
(lp140
F3.9188450501411225
aF1.0128545978000636
asg17
(lp141
sg24
g55
sg26
(lp142
g57
ag48
asba(iTFClasses
function
p143
(dp144
g15
(lp145
F0.1903021126375634
aF0.01812705238658659
aF0.003035108727771926
asg9
(lp146
F4.578952858672455
aF0.9802098911844764
aF0.025715397422113186
asg17
(lp147
sg24
g63
sg26
(lp148
g57
ag57
ag57
asba(iTFClasses
function
p149
(dp150
g15
(lp151
F0.06311098453241323
aF0.0005833139913972884
asg9
(lp152
F10.308915099608187
aF0.9266156896212714
asg17
(lp153
sg24
g55
sg26
(lp154
g57
ag48
asba(iTFClasses
function
p155
(dp156
g15
(lp157
F0.07475171544203804
aF0.0778016419342685
aF0.00047111735838622826
asg9
(lp158
F6.614181565030382
aF1.3432459982624438e-07
aF0.10256105085842762
asg17
(lp159
sg24
g63
sg26
(lp160
g57
ag57
ag57
asbasba(iTFClasses
TF
p161
(dp162
g5
(iTFClasses
function
p163
(dp164
g8
F0.7
sg9
(lp165
F1141.8381921912733
aF36.6285003281025
aF8.288168938093921
aF43.92059838855589
aF4.480213481032891
asg11
(lp166
g13
ag14
asg15
(lp167
F34.11467116366178
aF0.39876719956583173
aF0.2308431941187017
aF1.4448793654895375
aF0.9895129059841468
asg17
(lp168
g19
ag20
ag21
ag22
asg23
I01
sg24
g25
sg26
(lp169
g28
ag29
ag30
ag31
ag32
asg33
g34
sg35
(lp170
g37
ag38
asbsg39
I1
sg40
g118
sg41
(lp171
(iTFClasses
function
p172
(dp173
g15
(lp174
sg9
(lp175
sg17
(lp176
sg24
g48
sg26
(lp177
sba(iTFClasses
function
p178
(dp179
g15
(lp180
F0.0776853834772689
aF0.0007515982643265989
asg9
(lp181
F5.161949711326168
aF1.0070891156370407
asg17
(lp182
sg24
g55
sg26
(lp183
g57
ag48
asba(iTFClasses
function
p184
(dp185
g15
(lp186
F0.29416886444080614
aF0.029904114357053976
aF0.005543700243250329
asg9
(lp187
F5.585351083886602
aF1.1238530188800386
aF0.02693276593399432
asg17
(lp188
sg24
g63
sg26
(lp189
g57
ag57
ag57
asba(iTFClasses
function
p190
(dp191
g15
(lp192
F0.14687095224413138
aF0.001346833673427518
asg9
(lp193
F10.559584190174235
aF0.9150708913834358
asg17
(lp194
sg24
g55
sg26
(lp195
g57
ag48
asba(iTFClasses
function
p196
(dp197
g15
(lp198
F0.15010370564397665
aF0.09222777221578701
aF0.0007113129513868056
asg9
(lp199
F5.427763468080634
aF1.2225817983627836e-06
aF0.11086365790324162
asg17
(lp200
sg24
g63
sg26
(lp201
g57
ag57
ag57
asbasbas.