(dp0
S'b'
p1
(lp2
(iTFClasses
TF
p3
(dp4
S'SingleBinFunc'
p5
(iTFClasses
function
p6
(dp7
S'DG_rel_weight'
p8
F0.7
sS'par_values'
p9
(lp10
F9716.53495860253
aF28.224763087211446
aF5.868376605430936
aF25.767365810688613
aF5.984352376458002
asS'DG_mean'
p11
(lp12
S'[1]'
p13
aS'[3]'
p14
asS'par_errors'
p15
(lp16
F330.9138713085752
aF0.32484489182932386
aF0.3092701672526843
aF3.0713953031704655
aF1.2264886499548933
asS'par_limits'
p17
(lp18
(I1
F0.0
F2000.0
tp19
a(I2
F0.0
F2000.0
tp20
a(I3
F0.0
F2000.0
tp21
a(I4
F0.0
F2000.0
tp22
asS'Is_DG'
p23
I01
sS'str'
p24
S'[0]*(0.7*exp(-0.5*((x-([1]))/([2]))**2)+(1-0.7)*exp(-0.5*((x-([3]))/([2]+[4]))**2))'
p25
sS'par_initials'
p26
(lp27
S'0'
p28
aS'1.1*mean'
p29
aS'1.0*rms'
p30
aS'0.7*mean'
p31
aS'0.5*rms'
p32
asS'fitrange'
p33
(F30.1
F500.0
tp34
sS'DG_rms'
p35
(lp36
S'[2]'
p37
aS'[2]+[4]'
p38
asbsS'i_eta'
p39
I0
sS'particle'
p40
g1
sS'AcrossBinFuncs'
p41
(lp42
(iTFClasses
function
p43
(dp44
g15
(lp45
sg9
(lp46
sg17
(lp47
sg24
S'1'
p48
sg26
(lp49
sba(iTFClasses
function
p50
(dp51
g15
(lp52
F0.02988442287816346
aF0.0003091548450473729
asg9
(lp53
F-4.698166073660172
aF1.004179778398358
asg17
(lp54
sg24
S'[0]+[1]*x'
p55
sg26
(lp56
S'0'
p57
ag48
asba(iTFClasses
function
p58
(dp59
g15
(lp60
F0.18452586379302258
aF0.002908681210919243
aF0.0007117715251492533
asg9
(lp61
F4.3118393647096256e-07
aF1.0948305418391369
aF0.039743676104854894
asg17
(lp62
sg24
S'sqrt([0]*[0] + x*[1]*[1] + x*x*[2]*[2])'
p63
sg26
(lp64
g57
ag57
ag57
asba(iTFClasses
function
p65
(dp66
g15
(lp67
F0.051612147810940846
aF0.0004385794370688361
asg9
(lp68
F-8.562460251468009
aF0.9211925536931697
asg17
(lp69
sg24
g55
sg26
(lp70
g57
ag48
asba(iTFClasses
function
p71
(dp72
g15
(lp73
F0.10955496336628857
aF0.03402077691356742
aF0.0003179939842815381
asg9
(lp74
F3.8184855875621975
aF2.59663860040467e-07
aF0.12267339133378023
asg17
(lp75
sg24
g63
sg26
(lp76
g57
ag57
ag57
asbasba(iTFClasses
TF
p77
(dp78
g5
(iTFClasses
function
p79
(dp80
g8
F0.7
sg9
(lp81
F5221.844871707434
aF28.695840493078716
aF5.364909769355775
aF32.21925706847139
aF3.0032702713324033
asg11
(lp82
g13
ag14
asg15
(lp83
F118.91544256505053
aF0.4414205440565482
aF0.42284151001004133
aF1.604224343912886
aF0.5818512579102153
asg17
(lp84
g19
ag20
ag21
ag22
asg23
I01
sg24
g25
sg26
(lp85
g28
ag29
ag30
ag31
ag32
asg33
g34
sg35
(lp86
g37
ag38
asbsg39
I1
sg40
g1
sg41
(lp87
(iTFClasses
function
p88
(dp89
g15
(lp90
sg9
(lp91
sg17
(lp92
sg24
g48
sg26
(lp93
sba(iTFClasses
function
p94
(dp95
g15
(lp96
F0.04984292157618874
aF0.0005156813150693846
asg9
(lp97
F-4.756710224011253
aF0.9885060574989153
asg17
(lp98
sg24
g55
sg26
(lp99
g57
ag48
asba(iTFClasses
function
p100
(dp101
g15
(lp102
F0.37199836343924786
aF0.0046512566289115395
aF0.0012855365775958714
asg9
(lp103
F8.04508450811159e-10
aF1.3105631166371419
aF0.04286679453167808
asg17
(lp104
sg24
g63
sg26
(lp105
g57
ag57
ag57
asba(iTFClasses
function
p106
(dp107
g15
(lp108
F0.13071131661011468
aF0.0011392153592670697
asg9
(lp109
F-9.655150525377369
aF0.9045844554225091
asg17
(lp110
sg24
g55
sg26
(lp111
g57
ag48
asba(iTFClasses
function
p112
(dp113
g15
(lp114
F2.5098879378802668
aF0.05326340663176912
aF0.0003484917785021004
asg9
(lp115
F-1.110683251197709e-06
aF1.7002826982938395e-11
aF0.11534857971922133
asg17
(lp116
sg24
g63
sg26
(lp117
g57
ag57
ag57
asbasbasS'l'
p118
(lp119
(iTFClasses
TF
p120
(dp121
g5
(iTFClasses
function
p122
(dp123
g8
F0.7
sg9
(lp124
F8424.864770540362
aF30.83437261523436
aF5.771892738026807
aF24.6126817228387
aF8.103189376093889
asg11
(lp125
g13
ag14
asg15
(lp126
F184.8345178516799
aF0.13888439449488743
aF0.16166662556599265
aF2.742819951913777
aF1.2266821719542076
asg17
(lp127
g19
ag20
ag21
ag22
asg23
I01
sg24
g25
sg26
(lp128
g28
ag29
ag30
ag31
ag32
asg33
g34
sg35
(lp129
g37
ag38
asbsg39
I0
sg40
g118
sg41
(lp130
(iTFClasses
function
p131
(dp132
g15
(lp133
sg9
(lp134
sg17
(lp135
sg24
g48
sg26
(lp136
sba(iTFClasses
function
p137
(dp138
g15
(lp139
F0.022471779622689023
aF0.0003588204206900152
asg9
(lp140
F-1.4355191582304148
aF1.0290843560859388
asg17
(lp141
sg24
g55
sg26
(lp142
g57
ag48
asba(iTFClasses
function
p143
(dp144
g15
(lp145
F0.3821525322272007
aF0.0030694453352068194
aF0.0006127194036307805
asg9
(lp146
F3.44907765517572e-06
aF0.9092696400690671
aF0.04697026119821667
asg17
(lp147
sg24
g63
sg26
(lp148
g57
ag57
ag57
asba(iTFClasses
function
p149
(dp150
g15
(lp151
F0.06711046056129494
aF0.0006985086198994521
asg9
(lp152
F-6.635220038395983
aF1.0261177267933745
asg17
(lp153
sg24
g55
sg26
(lp154
g57
ag48
asba(iTFClasses
function
p155
(dp156
g15
(lp157
F0.27479551435608246
aF0.047056880668774746
aF0.00190881634920597
asg9
(lp158
F5.505268955548828
aF0.675660639436033
aF0.07969130036832316
asg17
(lp159
sg24
g63
sg26
(lp160
g57
ag57
ag57
asbasba(iTFClasses
TF
p161
(dp162
g5
(iTFClasses
function
p163
(dp164
g8
F0.7
sg9
(lp165
F5480.796017404871
aF31.800354232633943
aF5.892078523613398
aF34.55082999695913
aF3.5851697396905857
asg11
(lp166
g13
ag14
asg15
(lp167
F74.39831599125976
aF0.18079174395851894
aF0.17541819356065025
aF1.150460062542603
aF0.5325857570114279
asg17
(lp168
g19
ag20
ag21
ag22
asg23
I01
sg24
g25
sg26
(lp169
g28
ag29
ag30
ag31
ag32
asg33
g34
sg35
(lp170
g37
ag38
asbsg39
I1
sg40
g118
sg41
(lp171
(iTFClasses
function
p172
(dp173
g15
(lp174
sg9
(lp175
sg17
(lp176
sg24
g48
sg26
(lp177
sba(iTFClasses
function
p178
(dp179
g15
(lp180
F0.0501810793911476
aF0.0005846285534269581
asg9
(lp181
F-1.0600784607041893
aF1.0286219875710132
asg17
(lp182
sg24
g55
sg26
(lp183
g57
ag48
asba(iTFClasses
function
p184
(dp185
g15
(lp186
F0.29012534550377145
aF0.025028041508027368
aF0.002388918562958074
asg9
(lp187
F3.8434374082956575
aF1.0180977617313303
aF0.05388885442762218
asg17
(lp188
sg24
g63
sg26
(lp189
g57
ag57
ag57
asba(iTFClasses
function
p190
(dp191
g15
(lp192
F0.08214498438779685
aF0.00082250327115974
asg9
(lp193
F-7.767688063983098
aF1.0062134493378592
asg17
(lp194
sg24
g55
sg26
(lp195
g57
ag48
asba(iTFClasses
function
p196
(dp197
g15
(lp198
F0.10422870362443862
aF0.344229185596766
aF0.0006553198864181963
asg9
(lp199
F5.979169675563086
aF-3.642662626918856e-08
aF0.103292010818369
asg17
(lp200
sg24
g63
sg26
(lp201
g57
ag57
ag57
asbasbas.