(dp0
S'b'
p1
(lp2
(iTFClasses
TF
p3
(dp4
S'SingleBinFunc'
p5
(iTFClasses
function
p6
(dp7
S'DG_rel_weight'
p8
F0.7
sS'par_values'
p9
(lp10
F9001.39059851327
aF27.41079173086669
aF6.703493309136888
aF24.39371167553739
aF6.609931384233825
asS'DG_mean'
p11
(lp12
S'[1]'
p13
aS'[3]'
p14
asS'par_errors'
p15
(lp16
F562.286325068968
aF0.47829306694263707
aF0.5539719883698169
aF6.788174126817424
aF2.8191432922868853
asS'par_limits'
p17
(lp18
(I1
F0.0
F2000.0
tp19
a(I2
F0.0
F2000.0
tp20
a(I3
F0.0
F2000.0
tp21
a(I4
F0.0
F2000.0
tp22
asS'Is_DG'
p23
I01
sS'str'
p24
S'[0]*(0.7*exp(-0.5*((x-([1]))/([2]))**2)+(1-0.7)*exp(-0.5*((x-([3]))/([2]+[4]))**2))'
p25
sS'par_initials'
p26
(lp27
S'0'
p28
aS'1.1*mean'
p29
aS'1.0*rms'
p30
aS'0.7*mean'
p31
aS'0.5*rms'
p32
asS'fitrange'
p33
(F30.1
F500.0
tp34
sS'DG_rms'
p35
(lp36
S'[2]'
p37
aS'[2]+[4]'
p38
asbsS'i_eta'
p39
I0
sS'particle'
p40
g1
sS'AcrossBinFuncs'
p41
(lp42
(iTFClasses
function
p43
(dp44
g15
(lp45
sg9
(lp46
sg17
(lp47
sg24
S'1'
p48
sg26
(lp49
sba(iTFClasses
function
p50
(dp51
g15
(lp52
F0.03764265819629784
aF0.0003730369648651948
asg9
(lp53
F-5.266056866991943
aF1.004758352338034
asg17
(lp54
sg24
S'[0]+[1]*x'
p55
sg26
(lp56
S'0'
p57
ag48
asba(iTFClasses
function
p58
(dp59
g15
(lp60
F0.20984005147599297
aF0.003609528730842294
aF0.0008307271320404065
asg9
(lp61
F2.020345124150869e-06
aF1.2335890894502173
aF0.04635359398726791
asg17
(lp62
sg24
S'sqrt([0]*[0] + x*[1]*[1] + x*x*[2]*[2])'
p63
sg26
(lp64
g57
ag57
ag57
asba(iTFClasses
function
p65
(dp66
g15
(lp67
F0.08963812252563916
aF0.0007752592193028554
asg9
(lp68
F-8.837488933896477
aF0.9212623357839153
asg17
(lp69
sg24
g55
sg26
(lp70
g57
ag48
asba(iTFClasses
function
p71
(dp72
g15
(lp73
F0.16319010873322717
aF0.037833468552157676
aF0.0003764075059302767
asg9
(lp74
F-3.2425463445125877
aF1.2041717692328623e-07
aF0.12305239416522926
asg17
(lp75
sg24
g63
sg26
(lp76
g57
ag57
ag57
asbasba(iTFClasses
TF
p77
(dp78
g5
(iTFClasses
function
p79
(dp80
g8
F0.7
sg9
(lp81
F4554.4095458033735
aF29.05097600859341
aF6.803134478828077
aF21.370097979018567
aF10.1757257622066
asg11
(lp82
g13
ag14
asg15
(lp83
F850.2441691431468
aF0.4407108159629196
aF0.9416781107627892
aF29.47254442029901
aF15.588586676337503
asg17
(lp84
g19
ag20
ag21
ag22
asg23
I01
sg24
g25
sg26
(lp85
g28
ag29
ag30
ag31
ag32
asg33
g34
sg35
(lp86
g37
ag38
asbsg39
I1
sg40
g1
sg41
(lp87
(iTFClasses
function
p88
(dp89
g15
(lp90
sg9
(lp91
sg17
(lp92
sg24
g48
sg26
(lp93
sba(iTFClasses
function
p94
(dp95
g15
(lp96
F0.0650764492084211
aF0.0006394395264082551
asg9
(lp97
F-4.8715365340908185
aF0.9884552235646962
asg17
(lp98
sg24
g55
sg26
(lp99
g57
ag48
asba(iTFClasses
function
p100
(dp101
g15
(lp102
F0.41182461620628025
aF0.005997701469884585
aF0.0016083317723491071
asg9
(lp103
F9.161833940618932e-06
aF1.4964033435120994
aF0.04769958892183899
asg17
(lp104
sg24
g63
sg26
(lp105
g57
ag57
ag57
asba(iTFClasses
function
p106
(dp107
g15
(lp108
F0.16672279370189508
aF0.0013972805144778497
asg9
(lp109
F-9.507431048261205
aF0.9026967397471929
asg17
(lp110
sg24
g55
sg26
(lp111
g57
ag48
asba(iTFClasses
function
p112
(dp113
g15
(lp114
F0.61990648263967
aF0.05126599887442794
aF0.00044598527775993255
asg9
(lp115
F1.3300193815532924e-12
aF-1.5806928118103961e-13
aF0.11503728415236486
asg17
(lp116
sg24
g63
sg26
(lp117
g57
ag57
ag57
asbasbasS'l'
p118
(lp119
(iTFClasses
TF
p120
(dp121
g5
(iTFClasses
function
p122
(dp123
g8
F0.7
sg9
(lp124
F7172.302292953892
aF30.81058831525518
aF5.985568275282405
aF30.678870622429244
aF5.822489435993283
asg11
(lp125
g13
ag14
asg15
(lp126
F48.43706494926572
aF0.15469104121623722
aF0.16625953744242583
aF1.4287402894327954
aF0.6730721256861805
asg17
(lp127
g19
ag20
ag21
ag22
asg23
I01
sg24
g25
sg26
(lp128
g28
ag29
ag30
ag31
ag32
asg33
g34
sg35
(lp129
g37
ag38
asbsg39
I0
sg40
g118
sg41
(lp130
(iTFClasses
function
p131
(dp132
g15
(lp133
sg9
(lp134
sg17
(lp135
sg24
g48
sg26
(lp136
sba(iTFClasses
function
p137
(dp138
g15
(lp139
F0.03454901420344523
aF0.0004104994807037714
asg9
(lp140
F-1.4464162070708415
aF1.0320077096832574
asg17
(lp141
sg24
g55
sg26
(lp142
g57
ag48
asba(iTFClasses
function
p143
(dp144
g15
(lp145
F0.26921247625895517
aF0.0036311082061539117
aF0.000693502164231521
asg9
(lp146
F4.938836039279882e-06
aF1.0169928834777264
aF0.054551794049786086
asg17
(lp147
sg24
g63
sg26
(lp148
g57
ag57
ag57
asba(iTFClasses
function
p149
(dp150
g15
(lp151
F0.08253379354226931
aF0.0008318888021907208
asg9
(lp152
F-7.037643449096311
aF1.0285255164790443
asg17
(lp153
sg24
g55
sg26
(lp154
g57
ag48
asba(iTFClasses
function
p155
(dp156
g15
(lp157
F0.29042775856252534
aF0.14443052061967504
aF0.002094487371900425
asg9
(lp158
F7.202814175874342
aF0.29556713426020353
aF0.09504900122692009
asg17
(lp159
sg24
g63
sg26
(lp160
g57
ag57
ag57
asbasba(iTFClasses
TF
p161
(dp162
g5
(iTFClasses
function
p163
(dp164
g8
F0.7
sg9
(lp165
F5111.839115678086
aF31.714748645927937
aF5.945855208882023
aF39.43923171853847
aF2.4033469780039285
asg11
(lp166
g13
ag14
asg15
(lp167
F92.35682105771865
aF0.1491551468690293
aF0.1935365080727447
aF0.40682827545468214
aF0.2034505076962123
asg17
(lp168
g19
ag20
ag21
ag22
asg23
I01
sg24
g25
sg26
(lp169
g28
ag29
ag30
ag31
ag32
asg33
g34
sg35
(lp170
g37
ag38
asbsg39
I1
sg40
g118
sg41
(lp171
(iTFClasses
function
p172
(dp173
g15
(lp174
sg9
(lp175
sg17
(lp176
sg24
g48
sg26
(lp177
sba(iTFClasses
function
p178
(dp179
g15
(lp180
F0.06241711558000599
aF0.0007025493980013274
asg9
(lp181
F-0.7053795604189589
aF1.033598541238496
asg17
(lp182
sg24
g55
sg26
(lp183
g57
ag48
asba(iTFClasses
function
p184
(dp185
g15
(lp186
F0.48742260911162966
aF0.027727548983338016
aF0.003513529948531461
asg9
(lp187
F3.249721039009871
aF1.26540865832641
aF0.04905154109594396
asg17
(lp188
sg24
g63
sg26
(lp189
g57
ag57
ag57
asba(iTFClasses
function
p190
(dp191
g15
(lp192
F0.14883202910314614
aF0.0014345735863050125
asg9
(lp193
F-7.635580515053561
aF1.0056819252068296
asg17
(lp194
sg24
g55
sg26
(lp195
g57
ag48
asba(iTFClasses
function
p196
(dp197
g15
(lp198
F0.14151990748810045
aF0.1470196354828356
aF0.0008031472637724171
asg9
(lp199
F6.327127034541443
aF6.28980917092804e-08
aF0.10836452053476456
asg17
(lp200
sg24
g63
sg26
(lp201
g57
ag57
ag57
asbasbas.